; Function Attrs: nounwind uwtable
define internal fastcc noundef zeroext i1 @all_in(ptr noundef readonly captures(none) %0, i32 %.8.val) unnamed_addr #2 {
  %2 = getelementptr inbounds nuw i8, ptr %0, i64 16
  %3 = load ptr, ptr %2, align 8
  %4 = zext i32 %.8.val to i64
  %5 = getelementptr %struct.df_cell_t, ptr %3, i64 %4
  %6 = load ptr, ptr %5, align 8
  %7 = getelementptr inbounds nuw i8, ptr %6, i64 8
  %8 = load i32, ptr %7, align 8
  %9 = icmp eq i32 %8, 0
  br i1 %9, label %.critedge, label %.lr.ph13

.lr.ph13:                                         ; preds = %1
  %10 = getelementptr inbounds nuw i8, ptr %0, i64 96
  br label %11

11:                                               ; preds = %.lr.ph13, %test_in_internal.exit
  %.012 = phi i64 [ 0, %.lr.ph13 ], [ %48, %test_in_internal.exit ]
  %.0147 = load ptr, ptr %10, align 8
  %.not.not8.not.not = icmp ne ptr %.0147, null
  br i1 %.not.not8.not.not, label %.lr.ph, label %.critedge

.lr.ph:                                           ; preds = %11, %.loopexit
  %.0149 = phi ptr [ %.014, %.loopexit ], [ %.0147, %11 ]
  %12 = load ptr, ptr %6, align 8
  %13 = getelementptr ptr, ptr %12, i64 %.012
  %14 = load ptr, ptr %13, align 8
  %15 = load ptr, ptr %.0149, align 8
  %.val = load ptr, ptr %15, align 8
  %16 = getelementptr i8, ptr %15, i64 8
  %.val16 = load ptr, ptr %16, align 8
  %.not.i = icmp eq ptr %.val16, null
  br i1 %.not.i, label %.preheader.i, label %.preheader4.i

.preheader4.i:                                    ; preds = %.lr.ph
  %17 = getelementptr inbounds nuw i8, ptr %.val16, i64 8
  %18 = load i32, ptr %17, align 8
  %.not16.i = icmp eq i32 %18, 0
  br i1 %.not16.i, label %.loopexit, label %.lr.ph.i

.preheader.i:                                     ; preds = %.lr.ph
  %19 = getelementptr inbounds nuw i8, ptr %.val, i64 8
  %20 = load i32, ptr %19, align 8
  %.not18.i = icmp eq i32 %20, 0
  br i1 %.not18.i, label %.loopexit, label %.lr.ph12.i

21:                                               ; preds = %.lr.ph.i
  %indvars.iv.next.i = add nuw nsw i64 %indvars.iv.i, 1
  %22 = load i32, ptr %17, align 8
  %23 = zext i32 %22 to i64
  %24 = icmp samesign ult i64 %indvars.iv.next.i, %23
  br i1 %24, label %.lr.ph.i, label %.loopexit, !llvm.loop !29

.lr.ph.i:                                         ; preds = %.preheader4.i, %21
  %indvars.iv.i = phi i64 [ %indvars.iv.next.i, %21 ], [ 0, %.preheader4.i ]
  %25 = load ptr, ptr %.val16, align 8
  %26 = getelementptr ptr, ptr %25, i64 %indvars.iv.i
  %27 = load ptr, ptr %26, align 8
  %28 = tail call zeroext i1 @fvalue_le(ptr noundef %14, ptr noundef %27) #11
  br i1 %28, label %.preheader1.i, label %21

.preheader1.i:                                    ; preds = %.lr.ph.i
  %29 = getelementptr inbounds nuw i8, ptr %.val, i64 8
  %30 = load i32, ptr %29, align 8
  %.not17.i = icmp eq i32 %30, 0
  br i1 %.not17.i, label %.loopexit, label %.lr.ph8.i

31:                                               ; preds = %.lr.ph8.i
  %indvars.iv.next24.i = add nuw nsw i64 %indvars.iv23.i, 1
  %32 = load i32, ptr %29, align 8
  %33 = zext i32 %32 to i64
  %34 = icmp samesign ult i64 %indvars.iv.next24.i, %33
  br i1 %34, label %.lr.ph8.i, label %.loopexit, !llvm.loop !30

.lr.ph8.i:                                        ; preds = %.preheader1.i, %31
  %indvars.iv23.i = phi i64 [ %indvars.iv.next24.i, %31 ], [ 0, %.preheader1.i ]
  %35 = load ptr, ptr %.val, align 8
  %36 = getelementptr ptr, ptr %35, i64 %indvars.iv23.i
  %37 = load ptr, ptr %36, align 8
  %38 = tail call zeroext i1 @fvalue_ge(ptr noundef %14, ptr noundef %37) #11
  br i1 %38, label %test_in_internal.exit, label %31

39:                                               ; preds = %.lr.ph12.i
  %indvars.iv.next27.i = add nuw nsw i64 %indvars.iv26.i, 1
  %40 = load i32, ptr %19, align 8
  %41 = zext i32 %40 to i64
  %42 = icmp samesign ult i64 %indvars.iv.next27.i, %41
  br i1 %42, label %.lr.ph12.i, label %.loopexit, !llvm.loop !31

.lr.ph12.i:                                       ; preds = %.preheader.i, %39
  %indvars.iv26.i = phi i64 [ %indvars.iv.next27.i, %39 ], [ 0, %.preheader.i ]
  %43 = load ptr, ptr %.val, align 8
  %44 = getelementptr ptr, ptr %43, i64 %indvars.iv26.i
  %45 = load ptr, ptr %44, align 8
  %46 = tail call zeroext i1 @fvalue_eq(ptr noundef %14, ptr noundef %45) #11
  br i1 %46, label %test_in_internal.exit, label %39

.loopexit:                                        ; preds = %21, %31, %39, %.preheader.i, %.preheader1.i, %.preheader4.i
  %47 = getelementptr inbounds nuw i8, ptr %.0149, i64 8
  %.014 = load ptr, ptr %47, align 8
  %.not.not = icmp eq ptr %.014, null
  br i1 %.not.not, label %.critedge, label %.lr.ph, !llvm.loop !32

test_in_internal.exit:                            ; preds = %.lr.ph8.i, %.lr.ph12.i
  %48 = add nuw nsw i64 %.012, 1
  %49 = load i32, ptr %7, align 8
  %50 = zext i32 %49 to i64
  %.not = icmp samesign ult i64 %48, %50
  br i1 %.not, label %11, label %.critedge, !llvm.loop !33

.critedge:                                        ; preds = %test_in_internal.exit, %11, %.loopexit, %1
  %51 = phi i1 [ true, %1 ], [ false, %.loopexit ], [ %.not.not8.not.not, %11 ], [ %.not.not8.not.not, %test_in_internal.exit ]
  ret i1 %51
}